target datalayout = "e-m:e-p270:32:32-p271:32:32-p272:64:64-i64:64-i128:128-f80:128-n8:16:32:64-S128"
target triple = "x86_64-pc-linux-gnu"

%struct.RelationData = type { %struct.RelFileLocator, ptr, i32, i32, i8, i8, i8, i8, i8, i32, i32, i32, i32, ptr, ptr, i32, %struct.LockInfoData, ptr, ptr, ptr, ptr, ptr, i8, ptr, ptr, ptr, ptr, ptr, ptr, i32, ptr, i8, ptr, ptr, i32, i8, i32, ptr, i8, ptr, ptr, ptr, ptr, ptr, ptr, ptr, i32, ptr, ptr, ptr, ptr, ptr, ptr, ptr, ptr, ptr, ptr, ptr, ptr, ptr, ptr, ptr, ptr, ptr, ptr, ptr, i32, i8, ptr }
%struct.RelFileLocator = type { i32, i32, i32 }
%struct.LockInfoData = type { %struct.LockRelId }
%struct.LockRelId = type { i32, i32 }
%union.LWLockPadded = type { %struct.LWLock, [112 x i8] }
%struct.LWLock = type { i16, %struct.pg_atomic_uint32, %struct.proclist_head }
%struct.pg_atomic_uint32 = type { i32 }
%struct.proclist_head = type { i32, i32 }
%struct.BTVacInfo = type { i16, i32, i32, [0 x %struct.BTOneVacInfo] }
%struct.BTOneVacInfo = type { %struct.LockRelId, i16 }

@MainLWLockArray = external global ptr, align 8
@btvacinfo = internal global ptr null, align 8

; Function Attrs: nounwind uwtable
define dso_local zeroext i16 @_bt_vacuum_cycleid(ptr noundef %0) #0 {
  %2 = alloca ptr, align 8
  %3 = alloca i16, align 2
  %4 = alloca i32, align 4
  %5 = alloca ptr, align 8
  %6 = alloca i32, align 4
  store ptr %0, ptr %2, align 8
  call void @llvm.lifetime.start.p0(i64 2, ptr %3) #8
  store i16 0, ptr %3, align 2
  call void @llvm.lifetime.start.p0(i64 4, ptr %4) #8
  %7 = load ptr, ptr @MainLWLockArray, align 8
  %8 = getelementptr inbounds %union.LWLockPadded, ptr %7, i64 20
  %9 = call zeroext i1 @LWLockAcquire(ptr noundef %8, i32 noundef 1)
  store i32 0, ptr %4, align 4
  br label %10

10:                                               ; preds = %51, %1
  %11 = load i32, ptr %4, align 4
  %12 = load ptr, ptr @btvacinfo, align 8
  %13 = getelementptr inbounds nuw %struct.BTVacInfo, ptr %12, i32 0, i32 1
  %14 = load i32, ptr %13, align 4
  %15 = icmp slt i32 %11, %14
  br i1 %15, label %16, label %54

16:                                               ; preds = %10
  call void @llvm.lifetime.start.p0(i64 8, ptr %5) #8
  %17 = load ptr, ptr @btvacinfo, align 8
  %18 = getelementptr inbounds nuw %struct.BTVacInfo, ptr %17, i32 0, i32 3
  %19 = load i32, ptr %4, align 4
  %20 = sext i32 %19 to i64
  %21 = getelementptr inbounds [0 x %struct.BTOneVacInfo], ptr %18, i64 0, i64 %20
  store ptr %21, ptr %5, align 8
  %22 = load ptr, ptr %5, align 8
  %23 = getelementptr inbounds nuw %struct.BTOneVacInfo, ptr %22, i32 0, i32 0
  %24 = getelementptr inbounds nuw %struct.LockRelId, ptr %23, i32 0, i32 0
  %25 = load i32, ptr %24, align 4
  %26 = load ptr, ptr %2, align 8
  %27 = getelementptr inbounds nuw %struct.RelationData, ptr %26, i32 0, i32 16
  %28 = getelementptr inbounds nuw %struct.LockInfoData, ptr %27, i32 0, i32 0
  %29 = getelementptr inbounds nuw %struct.LockRelId, ptr %28, i32 0, i32 0
  %30 = load i32, ptr %29, align 4
  %31 = icmp eq i32 %25, %30
  br i1 %31, label %32, label %47

32:                                               ; preds = %16
  %33 = load ptr, ptr %5, align 8
  %34 = getelementptr inbounds nuw %struct.BTOneVacInfo, ptr %33, i32 0, i32 0
  %35 = getelementptr inbounds nuw %struct.LockRelId, ptr %34, i32 0, i32 1
  %36 = load i32, ptr %35, align 4
  %37 = load ptr, ptr %2, align 8
  %38 = getelementptr inbounds nuw %struct.RelationData, ptr %37, i32 0, i32 16
  %39 = getelementptr inbounds nuw %struct.LockInfoData, ptr %38, i32 0, i32 0
  %40 = getelementptr inbounds nuw %struct.LockRelId, ptr %39, i32 0, i32 1
  %41 = load i32, ptr %40, align 4
  %42 = icmp eq i32 %36, %41
  br i1 %42, label %43, label %47

43:                                               ; preds = %32
  %44 = load ptr, ptr %5, align 8
  %45 = getelementptr inbounds nuw %struct.BTOneVacInfo, ptr %44, i32 0, i32 1
  %46 = load i16, ptr %45, align 4
  store i16 %46, ptr %3, align 2
  store i32 2, ptr %6, align 4
  br label %48

47:                                               ; preds = %32, %16
  store i32 0, ptr %6, align 4
  br label %48

48:                                               ; preds = %47, %43
  call void @llvm.lifetime.end.p0(i64 8, ptr %5) #8
  %49 = load i32, ptr %6, align 4
  switch i32 %49, label %58 [
    i32 0, label %50
    i32 2, label %54
  ]

50:                                               ; preds = %48
  br label %51

51:                                               ; preds = %50
  %52 = load i32, ptr %4, align 4
  %53 = add i32 %52, 1
  store i32 %53, ptr %4, align 4
  br label %10, !llvm.loop !17

54:                                               ; preds = %48, %10
  %55 = load ptr, ptr @MainLWLockArray, align 8
  %56 = getelementptr inbounds %union.LWLockPadded, ptr %55, i64 20
  call void @LWLockRelease(ptr noundef %56)
  %57 = load i16, ptr %3, align 2
  store i32 1, ptr %6, align 4
  call void @llvm.lifetime.end.p0(i64 4, ptr %4) #8
  call void @llvm.lifetime.end.p0(i64 2, ptr %3) #8
  ret i16 %57

58:                                               ; preds = %48
  unreachable
}