; Function Attrs: nounwind uwtable
define dso_local zeroext i16 @_bt_vacuum_cycleid(ptr noundef readonly captures(none) %0) local_unnamed_addr #0 {
  %2 = load ptr, ptr @MainLWLockArray, align 8
  %3 = getelementptr inbounds nuw i8, ptr %2, i64 2560
  %4 = tail call zeroext i1 @LWLockAcquire(ptr noundef nonnull %3, i32 noundef 1) #14
  %5 = load ptr, ptr @btvacinfo, align 8
  %6 = getelementptr inbounds nuw i8, ptr %5, i64 4
  %7 = load i32, ptr %6, align 4
  %8 = icmp sgt i32 %7, 0
  br i1 %8, label %.lr.ph, label %.loopexit

.lr.ph:                                           ; preds = %1
  %9 = getelementptr inbounds nuw i8, ptr %5, i64 12
  %10 = getelementptr inbounds nuw i8, ptr %0, i64 76
  %11 = load i32, ptr %10, align 4
  %12 = getelementptr inbounds nuw i8, ptr %0, i64 80
  %wide.trip.count = zext nneg i32 %7 to i64
  br label %13

13:                                               ; preds = %.lr.ph, %25
  %indvars.iv = phi i64 [ 0, %.lr.ph ], [ %indvars.iv.next, %25 ]
  %14 = getelementptr inbounds nuw [0 x %struct.BTOneVacInfo], ptr %9, i64 0, i64 %indvars.iv
  %15 = load i32, ptr %14, align 4
  %16 = icmp eq i32 %15, %11
  br i1 %16, label %17, label %25

17:                                               ; preds = %13
  %18 = getelementptr inbounds nuw i8, ptr %14, i64 4
  %19 = load i32, ptr %18, align 4
  %20 = load i32, ptr %12, align 4
  %21 = icmp eq i32 %19, %20
  br i1 %21, label %22, label %25

22:                                               ; preds = %17
  %23 = getelementptr inbounds nuw i8, ptr %14, i64 8
  %24 = load i16, ptr %23, align 4
  br label %.loopexit

25:                                               ; preds = %17, %13
  %indvars.iv.next = add nuw nsw i64 %indvars.iv, 1
  %exitcond.not = icmp eq i64 %indvars.iv.next, %wide.trip.count
  br i1 %exitcond.not, label %.loopexit, label %13, !llvm.loop !19

.loopexit:                                        ; preds = %25, %1, %22
  %.1 = phi i16 [ %24, %22 ], [ 0, %1 ], [ 0, %25 ]
  %26 = load ptr, ptr @MainLWLockArray, align 8
  %27 = getelementptr inbounds nuw i8, ptr %26, i64 2560
  tail call void @LWLockRelease(ptr noundef nonnull %27) #14
  ret i16 %.1
}